target datalayout = "e-m:e-p270:32:32-p271:32:32-p272:64:64-i64:64-i128:128-f80:128-n8:16:32:64-S128"
target triple = "x86_64-unknown-linux-gnu"

%"class.std::set.0" = type { %"class.std::_Rb_tree.1" }
%"class.std::_Rb_tree.1" = type { %"struct.std::_Rb_tree<QuantLib::Observer *, QuantLib::Observer *, std::_Identity<QuantLib::Observer *>, std::less<QuantLib::Observer *>>::_Rb_tree_impl" }
%"struct.std::_Rb_tree<QuantLib::Observer *, QuantLib::Observer *, std::_Identity<QuantLib::Observer *>, std::less<QuantLib::Observer *>>::_Rb_tree_impl" = type { [8 x i8], %"struct.std::_Rb_tree_header" }
%"struct.std::_Rb_tree_header" = type { %"struct.std::_Rb_tree_node_base", i64 }
%"struct.std::_Rb_tree_node_base" = type { i32, ptr, ptr, ptr }
%"class.std::set" = type { %"class.std::_Rb_tree" }
%"class.std::_Rb_tree" = type { %"struct.std::_Rb_tree<boost::shared_ptr<QuantLib::Observable>, boost::shared_ptr<QuantLib::Observable>, std::_Identity<boost::shared_ptr<QuantLib::Observable>>, std::less<boost::shared_ptr<QuantLib::Observable>>>::_Rb_tree_impl" }
%"struct.std::_Rb_tree<boost::shared_ptr<QuantLib::Observable>, boost::shared_ptr<QuantLib::Observable>, std::_Identity<boost::shared_ptr<QuantLib::Observable>>, std::less<boost::shared_ptr<QuantLib::Observable>>>::_Rb_tree_impl" = type { [8 x i8], %"struct.std::_Rb_tree_header" }
%"class.boost::detail::shared_count" = type { ptr }
%"class.QuantLib::Observable" = type { ptr, %"class.std::set.0" }
%"class.QuantLib::Array" = type { %"class.std::unique_ptr", i64 }
%"class.std::unique_ptr" = type { %"struct.std::__uniq_ptr_data" }
%"struct.std::__uniq_ptr_data" = type { %"class.std::__uniq_ptr_impl" }
%"class.std::__uniq_ptr_impl" = type { %"class.std::tuple" }
%"class.std::tuple" = type { %"struct.std::_Tuple_impl" }
%"struct.std::_Tuple_impl" = type { %"struct.std::_Head_base.7" }
%"struct.std::_Head_base.7" = type { ptr }
%"class.QuantLib::Handle" = type { %"class.boost::shared_ptr.35" }
%"class.boost::shared_ptr.35" = type { ptr, %"class.boost::detail::shared_count" }
%"class.QuantLib::GeneralizedHullWhite" = type { %"class.QuantLib::OneFactorAffineModel.base", %"class.QuantLib::TermStructureConsistentModel.base", %"class.std::vector.36", %"class.std::vector.36", %"class.std::vector", %"class.std::vector", %"class.QuantLib::Interpolation", %"class.QuantLib::Interpolation", ptr, ptr, %"class.QuantLib::Parameter", %"class.std::function", %"class.std::function", %"class.QuantLib::Observer", %"class.QuantLib::Observable" }
%"class.QuantLib::OneFactorAffineModel.base" = type { %"class.QuantLib::OneFactorModel.base", %"class.QuantLib::AffineModel.base" }
%"class.QuantLib::OneFactorModel.base" = type { %"class.QuantLib::ShortRateModel.base" }
%"class.QuantLib::ShortRateModel.base" = type { %"class.QuantLib::CalibratedModel.base" }
%"class.QuantLib::CalibratedModel.base" = type <{ ptr, %"class.std::vector.29", %"class.boost::shared_ptr.34", i32, [4 x i8], %"class.QuantLib::Array", i32 }>
%"class.std::vector.29" = type { %"struct.std::_Vector_base.30" }
%"struct.std::_Vector_base.30" = type { %"struct.std::_Vector_base<QuantLib::Parameter, std::allocator<QuantLib::Parameter>>::_Vector_impl" }
%"struct.std::_Vector_base<QuantLib::Parameter, std::allocator<QuantLib::Parameter>>::_Vector_impl" = type { %"struct.std::_Vector_base<QuantLib::Parameter, std::allocator<QuantLib::Parameter>>::_Vector_impl_data" }
%"struct.std::_Vector_base<QuantLib::Parameter, std::allocator<QuantLib::Parameter>>::_Vector_impl_data" = type { ptr, ptr, ptr }
%"class.boost::shared_ptr.34" = type { ptr, %"class.boost::detail::shared_count" }
%"class.QuantLib::AffineModel.base" = type { ptr }
%"class.QuantLib::TermStructureConsistentModel.base" = type { ptr, %"class.QuantLib::Handle" }
%"class.std::vector.36" = type { %"struct.std::_Vector_base.37" }
%"struct.std::_Vector_base.37" = type { %"struct.std::_Vector_base<QuantLib::Date, std::allocator<QuantLib::Date>>::_Vector_impl" }
%"struct.std::_Vector_base<QuantLib::Date, std::allocator<QuantLib::Date>>::_Vector_impl" = type { %"struct.std::_Vector_base<QuantLib::Date, std::allocator<QuantLib::Date>>::_Vector_impl_data" }
%"struct.std::_Vector_base<QuantLib::Date, std::allocator<QuantLib::Date>>::_Vector_impl_data" = type { ptr, ptr, ptr }
%"class.std::vector" = type { %"struct.std::_Vector_base" }
%"struct.std::_Vector_base" = type { %"struct.std::_Vector_base<double, std::allocator<double>>::_Vector_impl" }
%"struct.std::_Vector_base<double, std::allocator<double>>::_Vector_impl" = type { %"struct.std::_Vector_base<double, std::allocator<double>>::_Vector_impl_data" }
%"struct.std::_Vector_base<double, std::allocator<double>>::_Vector_impl_data" = type { ptr, ptr, ptr }
%"class.QuantLib::Interpolation" = type { %"class.QuantLib::Extrapolator.base", %"class.boost::shared_ptr.41" }
%"class.QuantLib::Extrapolator.base" = type <{ ptr, i8 }>
%"class.boost::shared_ptr.41" = type { ptr, %"class.boost::detail::shared_count" }
%"class.QuantLib::Parameter" = type { %"class.boost::shared_ptr.42", %"class.QuantLib::Array", %"class.QuantLib::Constraint" }
%"class.boost::shared_ptr.42" = type { ptr, %"class.boost::detail::shared_count" }
%"class.QuantLib::Constraint" = type { %"class.boost::shared_ptr.43" }
%"class.boost::shared_ptr.43" = type { ptr, %"class.boost::detail::shared_count" }
%"class.std::function" = type { %"class.std::_Function_base", ptr }
%"class.std::_Function_base" = type { %"union.std::_Any_data", ptr }
%"union.std::_Any_data" = type { %"union.std::_Nocopy_types" }
%"union.std::_Nocopy_types" = type { { i64, i64 } }
%"class.QuantLib::Observer" = type { ptr, %"class.std::set" }

@.str.7 = private unnamed_addr constant [8 x i8] c"px != 0\00", align 1
@__PRETTY_FUNCTION__._ZNK5boost10shared_ptrIN8QuantLib13Interpolation4ImplEEptEv = private unnamed_addr constant [155 x i8] c"typename boost::detail::sp_member_access<T>::type boost::shared_ptr<QuantLib::Interpolation::Impl>::operator->() const [T = QuantLib::Interpolation::Impl]\00", align 1
@.str.8 = private unnamed_addr constant [102 x i8] c"generated/home/dtcxzyw/WorkSpace/SDK/vcpkg/installed/x64-linux/include/boost/smart_ptr/shared_ptr.hpp\00", align 1

; Function Attrs: mustprogress uwtable
define linkonce_odr noundef ptr @_ZNK5boost10shared_ptrIN8QuantLib13Interpolation4ImplEEptEv(ptr noundef nonnull align 8 dereferenceable(16) %this) #2 comdat align 2 {
entry:
  %this.addr = alloca ptr, align 8
  store ptr %this, ptr %this.addr, align 8, !tbaa !3
  %this1 = load ptr, ptr %this.addr, align 8
  %px = getelementptr inbounds nuw %"class.boost::shared_ptr.41", ptr %this1, i32 0, i32 0
  %0 = load ptr, ptr %px, align 8, !tbaa !166
  %cmp = icmp ne ptr %0, null
  %lnot = xor i1 %cmp, true
  %lnot2 = xor i1 %lnot, true
  %conv = zext i1 %lnot2 to i64
  %expval = call i64 @llvm.expect.i64(i64 %conv, i64 1)
  %tobool = icmp ne i64 %expval, 0
  br i1 %tobool, label %cond.true, label %cond.false

cond.true:                                        ; preds = %entry
  br label %cond.end

cond.false:                                       ; preds = %entry
  call void @_ZN5boost16assertion_failedEPKcS1_S1_l(ptr noundef @.str.7, ptr noundef @__PRETTY_FUNCTION__._ZNK5boost10shared_ptrIN8QuantLib13Interpolation4ImplEEptEv, ptr noundef @.str.8, i64 noundef 784)
  br label %cond.end

cond.end:                                         ; preds = %cond.false, %cond.true
  %px3 = getelementptr inbounds nuw %"class.boost::shared_ptr.41", ptr %this1, i32 0, i32 0
  %1 = load ptr, ptr %px3, align 8, !tbaa !166
  ret ptr %1
}

; Function Attrs: mustprogress uwtable
define linkonce_odr noundef double @_ZNK8QuantLib13InterpolationclEdb(ptr noundef nonnull align 8 dereferenceable(32) %this, double noundef %x, i1 noundef zeroext %allowExtrapolation) #2 comdat align 2 {
entry:
  %this.addr = alloca ptr, align 8
  %x.addr = alloca double, align 8
  %allowExtrapolation.addr = alloca i8, align 1
  store ptr %this, ptr %this.addr, align 8, !tbaa !3
  store double %x, ptr %x.addr, align 8, !tbaa !16
  %storedv = zext i1 %allowExtrapolation to i8
  store i8 %storedv, ptr %allowExtrapolation.addr, align 1, !tbaa !83
  %this1 = load ptr, ptr %this.addr, align 8
  %0 = load double, ptr %x.addr, align 8, !tbaa !16
  %1 = load i8, ptr %allowExtrapolation.addr, align 1, !tbaa !83, !range !84, !noundef !85
  %loadedv = trunc i8 %1 to i1
  call void @_ZNK8QuantLib13Interpolation10checkRangeEdb(ptr noundef nonnull align 8 dereferenceable(32) %this1, double noundef %0, i1 noundef zeroext %loadedv)
  %impl_ = getelementptr inbounds nuw %"class.QuantLib::Interpolation", ptr %this1, i32 0, i32 1
  %call = call noundef ptr @_ZNK5boost10shared_ptrIN8QuantLib13Interpolation4ImplEEptEv(ptr noundef nonnull align 8 dereferenceable(16) %impl_)
  %2 = load double, ptr %x.addr, align 8, !tbaa !16
  %vtable = load ptr, ptr %call, align 8, !tbaa !12
  %vfn = getelementptr inbounds ptr, ptr %vtable, i64 8
  %3 = load ptr, ptr %vfn, align 8
  %call2 = call noundef double %3(ptr noundef nonnull align 8 dereferenceable(8) %call, double noundef %2)
  ret double %call2
}

; Function Attrs: inlinehint mustprogress nounwind uwtable
define linkonce_odr noundef nonnull align 8 dereferenceable(8) ptr @_ZSt3minImERKT_S2_S2_(ptr noundef nonnull align 8 dereferenceable(8) %__a, ptr noundef nonnull align 8 dereferenceable(8) %__b) #5 comdat {
entry:
  %retval = alloca ptr, align 8
  %__a.addr = alloca ptr, align 8
  %__b.addr = alloca ptr, align 8
  store ptr %__a, ptr %__a.addr, align 8, !tbaa !3
  store ptr %__b, ptr %__b.addr, align 8, !tbaa !3
  %0 = load ptr, ptr %__b.addr, align 8, !tbaa !3
  %1 = load i64, ptr %0, align 8, !tbaa !14
  %2 = load ptr, ptr %__a.addr, align 8, !tbaa !3
  %3 = load i64, ptr %2, align 8, !tbaa !14
  %cmp = icmp ult i64 %1, %3
  br i1 %cmp, label %if.then, label %if.end

if.then:                                          ; preds = %entry
  %4 = load ptr, ptr %__b.addr, align 8, !tbaa !3
  store ptr %4, ptr %retval, align 8
  br label %return

if.end:                                           ; preds = %entry
  %5 = load ptr, ptr %__a.addr, align 8, !tbaa !3
  store ptr %5, ptr %retval, align 8
  br label %return

return:                                           ; preds = %if.end, %if.then
  %6 = load ptr, ptr %retval, align 8
  ret ptr %6
}

; Function Attrs: mustprogress uwtable
define noundef double @_ZNK8QuantLib20GeneralizedHullWhite1BEdd(ptr noundef nonnull align 8 dereferenceable(400) %this, double noundef %t, double noundef %T) unnamed_addr #2 align 2 {
entry:
  %this.addr = alloca ptr, align 8
  %t.addr = alloca double, align 8
  %T.addr = alloca double, align 8
  %lnEt = alloca double, align 8
  %Et = alloca double, align 8
  %B = alloca double, align 8
  %N = alloca i64, align 8
  %ref.tmp = alloca i64, align 8
  %ref.tmp3 = alloca i64, align 8
  %dt = alloca double, align 8
  %a = alloca double, align 8
  %b = alloca double, align 8
  %c = alloca double, align 8
  %_t = alloca double, align 8
  %total = alloca double, align 8
  %i = alloca i64, align 8
  store ptr %this, ptr %this.addr, align 8, !tbaa !3
  store double %t, ptr %t.addr, align 8, !tbaa !16
  store double %T, ptr %T.addr, align 8, !tbaa !16
  %this1 = load ptr, ptr %this.addr, align 8
  call void @llvm.lifetime.start.p0(i64 8, ptr %lnEt) #17
  %speed_ = getelementptr inbounds nuw %"class.QuantLib::GeneralizedHullWhite", ptr %this1, i32 0, i32 6
  %0 = load double, ptr %t.addr, align 8, !tbaa !16
  %call = call noundef double @_ZN8QuantLib12_GLOBAL__N_122integrateMeanReversionERKNS_13InterpolationEdd(ptr noundef nonnull align 8 dereferenceable(32) %speed_, double noundef 0.000000e+00, double noundef %0)
  store double %call, ptr %lnEt, align 8, !tbaa !16
  call void @llvm.lifetime.start.p0(i64 8, ptr %Et) #17
  %1 = load double, ptr %lnEt, align 8, !tbaa !16
  %call2 = call double @exp(double noundef %1) #17, !tbaa !81
  store double %call2, ptr %Et, align 8, !tbaa !16
  call void @llvm.lifetime.start.p0(i64 8, ptr %B) #17
  store double 0.000000e+00, ptr %B, align 8, !tbaa !16
  call void @llvm.lifetime.start.p0(i64 8, ptr %N) #17
  call void @llvm.lifetime.start.p0(i64 8, ptr %ref.tmp) #17
  %2 = load double, ptr %T.addr, align 8, !tbaa !16
  %3 = load double, ptr %t.addr, align 8, !tbaa !16
  %sub = fsub double %2, %3
  %mul = fmul double %sub, 3.650000e+02
  %conv = fptoui double %mul to i64
  store i64 %conv, ptr %ref.tmp, align 8, !tbaa !14
  call void @llvm.lifetime.start.p0(i64 8, ptr %ref.tmp3) #17
  store i64 2000, ptr %ref.tmp3, align 8, !tbaa !14
  %call4 = call noundef nonnull align 8 dereferenceable(8) ptr @_ZSt3minImERKT_S2_S2_(ptr noundef nonnull align 8 dereferenceable(8) %ref.tmp, ptr noundef nonnull align 8 dereferenceable(8) %ref.tmp3)
  %4 = load i64, ptr %call4, align 8, !tbaa !14
  call void @llvm.lifetime.end.p0(i64 8, ptr %ref.tmp3) #17
  call void @llvm.lifetime.end.p0(i64 8, ptr %ref.tmp) #17
  store i64 %4, ptr %N, align 8, !tbaa !14
  %5 = load i64, ptr %N, align 8, !tbaa !14
  %cmp = icmp eq i64 %5, 0
  br i1 %cmp, label %if.then, label %if.end

if.then:                                          ; preds = %entry
  store i64 1, ptr %N, align 8, !tbaa !14
  br label %if.end

if.end:                                           ; preds = %if.then, %entry
  call void @llvm.lifetime.start.p0(i64 8, ptr %dt) #17
  %6 = load double, ptr %T.addr, align 8, !tbaa !16
  %7 = load double, ptr %t.addr, align 8, !tbaa !16
  %sub5 = fsub double %6, %7
  %mul6 = fmul double 5.000000e-01, %sub5
  %8 = load i64, ptr %N, align 8, !tbaa !14
  %conv7 = uitofp i64 %8 to double
  %div = fdiv double %mul6, %conv7
  store double %div, ptr %dt, align 8, !tbaa !16
  call void @llvm.lifetime.start.p0(i64 8, ptr %a) #17
  call void @llvm.lifetime.start.p0(i64 8, ptr %b) #17
  call void @llvm.lifetime.start.p0(i64 8, ptr %c) #17
  call void @llvm.lifetime.start.p0(i64 8, ptr %_t) #17
  call void @llvm.lifetime.start.p0(i64 8, ptr %total) #17
  store double 0.000000e+00, ptr %total, align 8, !tbaa !16
  %9 = load double, ptr %t.addr, align 8, !tbaa !16
  store double %9, ptr %_t, align 8, !tbaa !16
  %speed_8 = getelementptr inbounds nuw %"class.QuantLib::GeneralizedHullWhite", ptr %this1, i32 0, i32 6
  %10 = load double, ptr %_t, align 8, !tbaa !16
  %call9 = call noundef double @_ZNK8QuantLib13InterpolationclEdb(ptr noundef nonnull align 8 dereferenceable(32) %speed_8, double noundef %10, i1 noundef zeroext false)
  store double %call9, ptr %c, align 8, !tbaa !16
  %11 = load double, ptr %dt, align 8, !tbaa !16
  %12 = load double, ptr %_t, align 8, !tbaa !16
  %add = fadd double %12, %11
  store double %add, ptr %_t, align 8, !tbaa !16
  call void @llvm.lifetime.start.p0(i64 8, ptr %i) #17
  store i64 0, ptr %i, align 8, !tbaa !14
  br label %for.cond

for.cond:                                         ; preds = %for.inc, %if.end
  %13 = load i64, ptr %i, align 8, !tbaa !14
  %14 = load i64, ptr %N, align 8, !tbaa !14
  %cmp10 = icmp ult i64 %13, %14
  br i1 %cmp10, label %for.body, label %for.cond.cleanup

for.cond.cleanup:                                 ; preds = %for.cond
  call void @llvm.lifetime.end.p0(i64 8, ptr %i) #17
  br label %for.end

for.body:                                         ; preds = %for.cond
  %15 = load double, ptr %c, align 8, !tbaa !16
  store double %15, ptr %a, align 8, !tbaa !16
  %speed_11 = getelementptr inbounds nuw %"class.QuantLib::GeneralizedHullWhite", ptr %this1, i32 0, i32 6
  %16 = load double, ptr %_t, align 8, !tbaa !16
  %call12 = call noundef double @_ZNK8QuantLib13InterpolationclEdb(ptr noundef nonnull align 8 dereferenceable(32) %speed_11, double noundef %16, i1 noundef zeroext false)
  store double %call12, ptr %b, align 8, !tbaa !16
  %speed_13 = getelementptr inbounds nuw %"class.QuantLib::GeneralizedHullWhite", ptr %this1, i32 0, i32 6
  %17 = load double, ptr %_t, align 8, !tbaa !16
  %18 = load double, ptr %dt, align 8, !tbaa !16
  %add14 = fadd double %17, %18
  %call15 = call noundef double @_ZNK8QuantLib13InterpolationclEdb(ptr noundef nonnull align 8 dereferenceable(32) %speed_13, double noundef %add14, i1 noundef zeroext false)
  store double %call15, ptr %c, align 8, !tbaa !16
  %19 = load double, ptr %dt, align 8, !tbaa !16
  %mul16 = fmul double %19, 0x3FD5555555555555
  %20 = load double, ptr %a, align 8, !tbaa !16
  %21 = load double, ptr %b, align 8, !tbaa !16
  %22 = call double @llvm.fmuladd.f64(double 4.000000e+00, double %21, double %20)
  %23 = load double, ptr %c, align 8, !tbaa !16
  %add18 = fadd double %22, %23
  %24 = load double, ptr %total, align 8, !tbaa !16
  %25 = call double @llvm.fmuladd.f64(double %mul16, double %add18, double %24)
  store double %25, ptr %total, align 8, !tbaa !16
  %26 = load double, ptr %dt, align 8, !tbaa !16
  %mul20 = fmul double 2.000000e+00, %26
  %27 = load double, ptr %lnEt, align 8, !tbaa !16
  %28 = load double, ptr %total, align 8, !tbaa !16
  %add21 = fadd double %27, %28
  %call22 = call double @exp(double noundef %add21) #17, !tbaa !81
  %div23 = fdiv double %mul20, %call22
  %29 = load double, ptr %B, align 8, !tbaa !16
  %add24 = fadd double %29, %div23
  store double %add24, ptr %B, align 8, !tbaa !16
  %30 = load double, ptr %dt, align 8, !tbaa !16
  %31 = load double, ptr %_t, align 8, !tbaa !16
  %32 = call double @llvm.fmuladd.f64(double 2.000000e+00, double %30, double %31)
  store double %32, ptr %_t, align 8, !tbaa !16
  br label %for.inc

for.inc:                                          ; preds = %for.body
  %33 = load i64, ptr %i, align 8, !tbaa !14
  %inc = add i64 %33, 1
  store i64 %inc, ptr %i, align 8, !tbaa !14
  br label %for.cond, !llvm.loop !82

for.end:                                          ; preds = %for.cond.cleanup
  %34 = load double, ptr %Et, align 8, !tbaa !16
  %35 = load double, ptr %B, align 8, !tbaa !16
  %mul26 = fmul double %35, %34
  store double %mul26, ptr %B, align 8, !tbaa !16
  %36 = load double, ptr %B, align 8, !tbaa !16
  call void @llvm.lifetime.end.p0(i64 8, ptr %total) #17
  call void @llvm.lifetime.end.p0(i64 8, ptr %_t) #17
  call void @llvm.lifetime.end.p0(i64 8, ptr %c) #17
  call void @llvm.lifetime.end.p0(i64 8, ptr %b) #17
  call void @llvm.lifetime.end.p0(i64 8, ptr %a) #17
  call void @llvm.lifetime.end.p0(i64 8, ptr %dt) #17
  call void @llvm.lifetime.end.p0(i64 8, ptr %N) #17
  call void @llvm.lifetime.end.p0(i64 8, ptr %B) #17
  call void @llvm.lifetime.end.p0(i64 8, ptr %Et) #17
  call void @llvm.lifetime.end.p0(i64 8, ptr %lnEt) #17
  ret double %36
}