; Function Attrs: mustprogress uwtable
define noundef double @_ZNK8QuantLib20GeneralizedHullWhite1BEdd(ptr noundef nonnull align 8 dereferenceable(400) %this, double noundef %t, double noundef %T) unnamed_addr #6 align 2 {
entry:
  %speed_ = getelementptr inbounds nuw i8, ptr %this, i64 208
  %call = tail call fastcc noundef double @_ZN8QuantLib12_GLOBAL__N_122integrateMeanReversionERKNS_13InterpolationEdd(ptr noundef nonnull align 8 dereferenceable(32) %speed_, double noundef %t)
  %call2 = tail call double @exp(double noundef %call) #28, !tbaa !137
  %sub = fsub double %T, %t
  %mul = fmul double %sub, 3.650000e+02
  %conv = fptoui double %mul to i64
  %.sroa.speculated = tail call i64 @llvm.umin.i64(i64 %conv, i64 2000)
  %spec.store.select = tail call i64 @llvm.umax.i64(i64 %.sroa.speculated, i64 1)
  %mul6 = fmul double %sub, 5.000000e-01
  %conv7 = uitofp nneg i64 %spec.store.select to double
  %div = fdiv double %mul6, %conv7
  tail call void @_ZNK8QuantLib13Interpolation10checkRangeEdb(ptr noundef nonnull align 8 dereferenceable(32) %speed_, double noundef %t, i1 noundef zeroext false)
  %impl_.i = getelementptr inbounds nuw i8, ptr %this, i64 224
  %0 = load ptr, ptr %impl_.i, align 8, !tbaa !102
  %cmp.not.i.i = icmp eq ptr %0, null
  br i1 %cmp.not.i.i, label %cond.false.i.i, label %_ZNK8QuantLib13InterpolationclEdb.exit, !prof !44

cond.false.i.i:                                   ; preds = %entry
  tail call void @_ZN5boost16assertion_failedEPKcS1_S1_l(ptr noundef nonnull @.str.7, ptr noundef nonnull @__PRETTY_FUNCTION__._ZNK5boost10shared_ptrIN8QuantLib13Interpolation4ImplEEptEv, ptr noundef nonnull @.str.8, i64 noundef 784)
  %.pre.i.i = load ptr, ptr %impl_.i, align 8, !tbaa !102
  br label %_ZNK8QuantLib13InterpolationclEdb.exit

_ZNK8QuantLib13InterpolationclEdb.exit:           ; preds = %entry, %cond.false.i.i
  %1 = phi ptr [ %0, %entry ], [ %.pre.i.i, %cond.false.i.i ]
  %vtable.i = load ptr, ptr %1, align 8, !tbaa !35
  %vfn.i = getelementptr inbounds i8, ptr %vtable.i, i64 64
  %2 = load ptr, ptr %vfn.i, align 8
  %call2.i = tail call noundef double %2(ptr noundef nonnull align 8 dereferenceable(8) %1, double noundef %t)
  %add = fadd double %t, %div
  %mul16 = fmul double %div, 0x3FD5555555555555
  %mul20 = fmul double %div, 2.000000e+00
  br label %for.body

for.cond.cleanup:                                 ; preds = %_ZNK8QuantLib13InterpolationclEdb.exit36
  %mul26 = fmul double %call2, %add24
  ret double %mul26

for.body:                                         ; preds = %_ZNK8QuantLib13InterpolationclEdb.exit, %_ZNK8QuantLib13InterpolationclEdb.exit36
  %i.043 = phi i64 [ 0, %_ZNK8QuantLib13InterpolationclEdb.exit ], [ %inc, %_ZNK8QuantLib13InterpolationclEdb.exit36 ]
  %total.042 = phi double [ 0.000000e+00, %_ZNK8QuantLib13InterpolationclEdb.exit ], [ %10, %_ZNK8QuantLib13InterpolationclEdb.exit36 ]
  %_t.041 = phi double [ %add, %_ZNK8QuantLib13InterpolationclEdb.exit ], [ %11, %_ZNK8QuantLib13InterpolationclEdb.exit36 ]
  %c.040 = phi double [ %call2.i, %_ZNK8QuantLib13InterpolationclEdb.exit ], [ %call2.i33, %_ZNK8QuantLib13InterpolationclEdb.exit36 ]
  %B.039 = phi double [ 0.000000e+00, %_ZNK8QuantLib13InterpolationclEdb.exit ], [ %add24, %_ZNK8QuantLib13InterpolationclEdb.exit36 ]
  tail call void @_ZNK8QuantLib13Interpolation10checkRangeEdb(ptr noundef nonnull align 8 dereferenceable(32) %speed_, double noundef %_t.041, i1 noundef zeroext false)
  %3 = load ptr, ptr %impl_.i, align 8, !tbaa !102
  %cmp.not.i.i22 = icmp eq ptr %3, null
  br i1 %cmp.not.i.i22, label %cond.false.i.i26, label %_ZNK8QuantLib13InterpolationclEdb.exit28, !prof !44

cond.false.i.i26:                                 ; preds = %for.body
  tail call void @_ZN5boost16assertion_failedEPKcS1_S1_l(ptr noundef nonnull @.str.7, ptr noundef nonnull @__PRETTY_FUNCTION__._ZNK5boost10shared_ptrIN8QuantLib13Interpolation4ImplEEptEv, ptr noundef nonnull @.str.8, i64 noundef 784)
  %.pre.i.i27 = load ptr, ptr %impl_.i, align 8, !tbaa !102
  br label %_ZNK8QuantLib13InterpolationclEdb.exit28

_ZNK8QuantLib13InterpolationclEdb.exit28:         ; preds = %for.body, %cond.false.i.i26
  %4 = phi ptr [ %3, %for.body ], [ %.pre.i.i27, %cond.false.i.i26 ]
  %vtable.i23 = load ptr, ptr %4, align 8, !tbaa !35
  %vfn.i24 = getelementptr inbounds i8, ptr %vtable.i23, i64 64
  %5 = load ptr, ptr %vfn.i24, align 8
  %call2.i25 = tail call noundef double %5(ptr noundef nonnull align 8 dereferenceable(8) %4, double noundef %_t.041)
  %add14 = fadd double %div, %_t.041
  tail call void @_ZNK8QuantLib13Interpolation10checkRangeEdb(ptr noundef nonnull align 8 dereferenceable(32) %speed_, double noundef %add14, i1 noundef zeroext false)
  %6 = load ptr, ptr %impl_.i, align 8, !tbaa !102
  %cmp.not.i.i30 = icmp eq ptr %6, null
  br i1 %cmp.not.i.i30, label %cond.false.i.i34, label %_ZNK8QuantLib13InterpolationclEdb.exit36, !prof !44

cond.false.i.i34:                                 ; preds = %_ZNK8QuantLib13InterpolationclEdb.exit28
  tail call void @_ZN5boost16assertion_failedEPKcS1_S1_l(ptr noundef nonnull @.str.7, ptr noundef nonnull @__PRETTY_FUNCTION__._ZNK5boost10shared_ptrIN8QuantLib13Interpolation4ImplEEptEv, ptr noundef nonnull @.str.8, i64 noundef 784)
  %.pre.i.i35 = load ptr, ptr %impl_.i, align 8, !tbaa !102
  br label %_ZNK8QuantLib13InterpolationclEdb.exit36

_ZNK8QuantLib13InterpolationclEdb.exit36:         ; preds = %_ZNK8QuantLib13InterpolationclEdb.exit28, %cond.false.i.i34
  %7 = phi ptr [ %6, %_ZNK8QuantLib13InterpolationclEdb.exit28 ], [ %.pre.i.i35, %cond.false.i.i34 ]
  %vtable.i31 = load ptr, ptr %7, align 8, !tbaa !35
  %vfn.i32 = getelementptr inbounds i8, ptr %vtable.i31, i64 64
  %8 = load ptr, ptr %vfn.i32, align 8
  %call2.i33 = tail call noundef double %8(ptr noundef nonnull align 8 dereferenceable(8) %7, double noundef %add14)
  %9 = tail call double @llvm.fmuladd.f64(double %call2.i25, double 4.000000e+00, double %c.040)
  %add18 = fadd double %9, %call2.i33
  %10 = tail call double @llvm.fmuladd.f64(double %mul16, double %add18, double %total.042)
  %add21 = fadd double %call, %10
  %call22 = tail call double @exp(double noundef %add21) #28, !tbaa !137
  %div23 = fdiv double %mul20, %call22
  %add24 = fadd double %B.039, %div23
  %11 = tail call double @llvm.fmuladd.f64(double %div, double 2.000000e+00, double %_t.041)
  %inc = add nuw nsw i64 %i.043, 1
  %exitcond.not = icmp eq i64 %inc, %spec.store.select
  br i1 %exitcond.not, label %for.cond.cleanup, label %for.body, !llvm.loop !138
}